; Function Attrs: nounwind uwtable
define ptr @l___private_Lean_Meta_ArgsPacker_0__Lean_Meta_ArgsPacker_Mutual_unpackType___lambda__2(ptr noundef %0, ptr readnone captures(none) %1, ptr noundef %2, ptr noundef %3, ptr noundef %4, ptr noundef %5, ptr noundef %6) local_unnamed_addr #1 {
  %8 = tail call ptr @l_Lean_MessageData_ofExpr(ptr noundef %0) #7
  %9 = load ptr, ptr @l___private_Lean_Meta_ArgsPacker_0__Lean_Meta_ArgsPacker_Mutual_unpackType___lambda__2___closed__2, align 8, !tbaa !12
  tail call void @lean_inc_heartbeat() #7
  %10 = tail call noalias ptr @mi_malloc_small(i64 noundef 24) #7
  %11 = icmp eq ptr %10, null
  br i1 %11, label %12, label %lean_alloc_ctor.exit

12:                                               ; preds = %7
  tail call void @lean_internal_panic_out_of_memory() #8
  unreachable

lean_alloc_ctor.exit:                             ; preds = %7
  %13 = getelementptr inbounds nuw i8, ptr %10, i64 4
  store i32 1, ptr %10, align 4, !tbaa !8
  store i32 117571608, ptr %13, align 4
  %14 = getelementptr inbounds nuw i8, ptr %10, i64 8
  store ptr %9, ptr %14, align 8, !tbaa !12
  %15 = getelementptr inbounds nuw i8, ptr %10, i64 16
  store ptr %8, ptr %15, align 8, !tbaa !12
  %16 = load ptr, ptr @l___private_Lean_Meta_ArgsPacker_0__Lean_Meta_ArgsPacker_Unary_casesOn___lambda__4___closed__4, align 8, !tbaa !12
  tail call void @lean_inc_heartbeat() #7
  %17 = tail call noalias ptr @mi_malloc_small(i64 noundef 24) #7
  %18 = icmp eq ptr %17, null
  br i1 %18, label %19, label %lean_alloc_ctor.exit16

19:                                               ; preds = %lean_alloc_ctor.exit
  tail call void @lean_internal_panic_out_of_memory() #8
  unreachable

lean_alloc_ctor.exit16:                           ; preds = %lean_alloc_ctor.exit
  %20 = getelementptr inbounds nuw i8, ptr %17, i64 4
  store i32 1, ptr %17, align 4, !tbaa !8
  store i32 117571608, ptr %20, align 4
  %21 = getelementptr inbounds nuw i8, ptr %17, i64 8
  store ptr %10, ptr %21, align 8, !tbaa !12
  %22 = getelementptr inbounds nuw i8, ptr %17, i64 16
  store ptr %16, ptr %22, align 8, !tbaa !12
  %23 = tail call ptr @l_Lean_throwError___at___private_Lean_Meta_ArgsPacker_0__Lean_Meta_ArgsPacker_Mutual_unpackType___spec__1(ptr noundef nonnull %17, ptr noundef %2, ptr noundef %3, ptr noundef %4, ptr noundef %5, ptr noundef %6)
  ret ptr %23
}